; Function Attrs: nounwind uwtable
define hidden zeroext i1 @SDL_GetTrayEntryEnabled_REAL(ptr noundef readonly captures(address_is_null) %0) local_unnamed_addr #0 {
  %.not = icmp eq ptr %0, null
  br i1 %.not, label %8, label %2

2:                                                ; preds = %1
  %3 = load ptr, ptr @gtk_widget_get_sensitive, align 8
  %4 = getelementptr inbounds nuw i8, ptr %0, i64 8
  %5 = load ptr, ptr %4, align 8
  %6 = tail call i32 %3(ptr noundef %5) #10
  %7 = icmp ne i32 %6, 0
  br label %8

8:                                                ; preds = %1, %2
  %.0 = phi i1 [ %7, %2 ], [ false, %1 ]
  ret i1 %.0
}